target datalayout = "e-m:e-p270:32:32-p271:32:32-p272:64:64-i64:64-i128:128-f80:128-n8:16:32:64-S128"
target triple = "x86_64-pc-linux-gnu"

%struct.png_row_info_struct = type { i32, i64, i8, i8, i8, i8 }

; Function Attrs: nounwind uwtable
define internal void @png_read_filter_row_paeth_multibyte_pixel(ptr noundef %0, ptr noundef %1, ptr noundef %2) #0 {
  %4 = alloca ptr, align 8
  %5 = alloca ptr, align 8
  %6 = alloca ptr, align 8
  %7 = alloca i32, align 4
  %8 = alloca ptr, align 8
  %9 = alloca i32, align 4
  %10 = alloca i32, align 4
  %11 = alloca i32, align 4
  %12 = alloca i32, align 4
  %13 = alloca i32, align 4
  %14 = alloca i32, align 4
  %15 = alloca i32, align 4
  %16 = alloca i32, align 4
  store ptr %0, ptr %4, align 8, !tbaa !69
  store ptr %1, ptr %5, align 8, !tbaa !8
  store ptr %2, ptr %6, align 8, !tbaa !8
  call void @llvm.lifetime.start.p0(i64 4, ptr %7) #7
  %17 = load ptr, ptr %4, align 8, !tbaa !69
  %18 = getelementptr inbounds nuw %struct.png_row_info_struct, ptr %17, i32 0, i32 5
  %19 = load i8, ptr %18, align 1, !tbaa !73
  %20 = zext i8 %19 to i32
  %21 = add nsw i32 %20, 7
  %22 = ashr i32 %21, 3
  store i32 %22, ptr %7, align 4, !tbaa !11
  call void @llvm.lifetime.start.p0(i64 8, ptr %8) #7
  %23 = load ptr, ptr %5, align 8, !tbaa !8
  %24 = load i32, ptr %7, align 4, !tbaa !11
  %25 = zext i32 %24 to i64
  %26 = getelementptr inbounds nuw i8, ptr %23, i64 %25
  store ptr %26, ptr %8, align 8, !tbaa !8
  br label %27

27:                                               ; preds = %31, %3
  %28 = load ptr, ptr %5, align 8, !tbaa !8
  %29 = load ptr, ptr %8, align 8, !tbaa !8
  %30 = icmp ult ptr %28, %29
  br i1 %30, label %31, label %44

31:                                               ; preds = %27
  call void @llvm.lifetime.start.p0(i64 4, ptr %9) #7
  %32 = load ptr, ptr %5, align 8, !tbaa !8
  %33 = load i8, ptr %32, align 1, !tbaa !10
  %34 = zext i8 %33 to i32
  %35 = load ptr, ptr %6, align 8, !tbaa !8
  %36 = getelementptr inbounds nuw i8, ptr %35, i32 1
  store ptr %36, ptr %6, align 8, !tbaa !8
  %37 = load i8, ptr %35, align 1, !tbaa !10
  %38 = zext i8 %37 to i32
  %39 = add nsw i32 %34, %38
  store i32 %39, ptr %9, align 4, !tbaa !11
  %40 = load i32, ptr %9, align 4, !tbaa !11
  %41 = trunc i32 %40 to i8
  %42 = load ptr, ptr %5, align 8, !tbaa !8
  %43 = getelementptr inbounds nuw i8, ptr %42, i32 1
  store ptr %43, ptr %5, align 8, !tbaa !8
  store i8 %41, ptr %42, align 1, !tbaa !10
  call void @llvm.lifetime.end.p0(i64 4, ptr %9) #7
  br label %27, !llvm.loop !209

44:                                               ; preds = %27
  %45 = load ptr, ptr %8, align 8, !tbaa !8
  %46 = load ptr, ptr %4, align 8, !tbaa !69
  %47 = getelementptr inbounds nuw %struct.png_row_info_struct, ptr %46, i32 0, i32 1
  %48 = load i64, ptr %47, align 8, !tbaa !82
  %49 = load i32, ptr %7, align 4, !tbaa !11
  %50 = zext i32 %49 to i64
  %51 = sub i64 %48, %50
  %52 = getelementptr inbounds nuw i8, ptr %45, i64 %51
  store ptr %52, ptr %8, align 8, !tbaa !8
  br label %53

53:                                               ; preds = %127, %44
  %54 = load ptr, ptr %5, align 8, !tbaa !8
  %55 = load ptr, ptr %8, align 8, !tbaa !8
  %56 = icmp ult ptr %54, %55
  br i1 %56, label %57, label %137

57:                                               ; preds = %53
  call void @llvm.lifetime.start.p0(i64 4, ptr %10) #7
  call void @llvm.lifetime.start.p0(i64 4, ptr %11) #7
  call void @llvm.lifetime.start.p0(i64 4, ptr %12) #7
  call void @llvm.lifetime.start.p0(i64 4, ptr %13) #7
  call void @llvm.lifetime.start.p0(i64 4, ptr %14) #7
  call void @llvm.lifetime.start.p0(i64 4, ptr %15) #7
  call void @llvm.lifetime.start.p0(i64 4, ptr %16) #7
  %58 = load ptr, ptr %6, align 8, !tbaa !8
  %59 = load i32, ptr %7, align 4, !tbaa !11
  %60 = zext i32 %59 to i64
  %61 = sub i64 0, %60
  %62 = getelementptr inbounds i8, ptr %58, i64 %61
  %63 = load i8, ptr %62, align 1, !tbaa !10
  %64 = zext i8 %63 to i32
  store i32 %64, ptr %12, align 4, !tbaa !11
  %65 = load ptr, ptr %5, align 8, !tbaa !8
  %66 = load i32, ptr %7, align 4, !tbaa !11
  %67 = zext i32 %66 to i64
  %68 = sub i64 0, %67
  %69 = getelementptr inbounds i8, ptr %65, i64 %68
  %70 = load i8, ptr %69, align 1, !tbaa !10
  %71 = zext i8 %70 to i32
  store i32 %71, ptr %10, align 4, !tbaa !11
  %72 = load ptr, ptr %6, align 8, !tbaa !8
  %73 = getelementptr inbounds nuw i8, ptr %72, i32 1
  store ptr %73, ptr %6, align 8, !tbaa !8
  %74 = load i8, ptr %72, align 1, !tbaa !10
  %75 = zext i8 %74 to i32
  store i32 %75, ptr %11, align 4, !tbaa !11
  %76 = load i32, ptr %11, align 4, !tbaa !11
  %77 = load i32, ptr %12, align 4, !tbaa !11
  %78 = sub nsw i32 %76, %77
  store i32 %78, ptr %16, align 4, !tbaa !11
  %79 = load i32, ptr %10, align 4, !tbaa !11
  %80 = load i32, ptr %12, align 4, !tbaa !11
  %81 = sub nsw i32 %79, %80
  store i32 %81, ptr %15, align 4, !tbaa !11
  %82 = load i32, ptr %16, align 4, !tbaa !11
  %83 = icmp slt i32 %82, 0
  br i1 %83, label %84, label %87

84:                                               ; preds = %57
  %85 = load i32, ptr %16, align 4, !tbaa !11
  %86 = sub nsw i32 0, %85
  br label %89

87:                                               ; preds = %57
  %88 = load i32, ptr %16, align 4, !tbaa !11
  br label %89

89:                                               ; preds = %87, %84
  %90 = phi i32 [ %86, %84 ], [ %88, %87 ]
  store i32 %90, ptr %13, align 4, !tbaa !11
  %91 = load i32, ptr %15, align 4, !tbaa !11
  %92 = icmp slt i32 %91, 0
  br i1 %92, label %93, label %96

93:                                               ; preds = %89
  %94 = load i32, ptr %15, align 4, !tbaa !11
  %95 = sub nsw i32 0, %94
  br label %98

96:                                               ; preds = %89
  %97 = load i32, ptr %15, align 4, !tbaa !11
  br label %98

98:                                               ; preds = %96, %93
  %99 = phi i32 [ %95, %93 ], [ %97, %96 ]
  store i32 %99, ptr %14, align 4, !tbaa !11
  %100 = load i32, ptr %16, align 4, !tbaa !11
  %101 = load i32, ptr %15, align 4, !tbaa !11
  %102 = add nsw i32 %100, %101
  %103 = icmp slt i32 %102, 0
  br i1 %103, label %104, label %109

104:                                              ; preds = %98
  %105 = load i32, ptr %16, align 4, !tbaa !11
  %106 = load i32, ptr %15, align 4, !tbaa !11
  %107 = add nsw i32 %105, %106
  %108 = sub nsw i32 0, %107
  br label %113

109:                                              ; preds = %98
  %110 = load i32, ptr %16, align 4, !tbaa !11
  %111 = load i32, ptr %15, align 4, !tbaa !11
  %112 = add nsw i32 %110, %111
  br label %113

113:                                              ; preds = %109, %104
  %114 = phi i32 [ %108, %104 ], [ %112, %109 ]
  store i32 %114, ptr %15, align 4, !tbaa !11
  %115 = load i32, ptr %14, align 4, !tbaa !11
  %116 = load i32, ptr %13, align 4, !tbaa !11
  %117 = icmp slt i32 %115, %116
  br i1 %117, label %118, label %121

118:                                              ; preds = %113
  %119 = load i32, ptr %14, align 4, !tbaa !11
  store i32 %119, ptr %13, align 4, !tbaa !11
  %120 = load i32, ptr %11, align 4, !tbaa !11
  store i32 %120, ptr %10, align 4, !tbaa !11
  br label %121

121:                                              ; preds = %118, %113
  %122 = load i32, ptr %15, align 4, !tbaa !11
  %123 = load i32, ptr %13, align 4, !tbaa !11
  %124 = icmp slt i32 %122, %123
  br i1 %124, label %125, label %127

125:                                              ; preds = %121
  %126 = load i32, ptr %12, align 4, !tbaa !11
  store i32 %126, ptr %10, align 4, !tbaa !11
  br label %127

127:                                              ; preds = %125, %121
  %128 = load ptr, ptr %5, align 8, !tbaa !8
  %129 = load i8, ptr %128, align 1, !tbaa !10
  %130 = zext i8 %129 to i32
  %131 = load i32, ptr %10, align 4, !tbaa !11
  %132 = add nsw i32 %131, %130
  store i32 %132, ptr %10, align 4, !tbaa !11
  %133 = load i32, ptr %10, align 4, !tbaa !11
  %134 = trunc i32 %133 to i8
  %135 = load ptr, ptr %5, align 8, !tbaa !8
  %136 = getelementptr inbounds nuw i8, ptr %135, i32 1
  store ptr %136, ptr %5, align 8, !tbaa !8
  store i8 %134, ptr %135, align 1, !tbaa !10
  call void @llvm.lifetime.end.p0(i64 4, ptr %16) #7
  call void @llvm.lifetime.end.p0(i64 4, ptr %15) #7
  call void @llvm.lifetime.end.p0(i64 4, ptr %14) #7
  call void @llvm.lifetime.end.p0(i64 4, ptr %13) #7
  call void @llvm.lifetime.end.p0(i64 4, ptr %12) #7
  call void @llvm.lifetime.end.p0(i64 4, ptr %11) #7
  call void @llvm.lifetime.end.p0(i64 4, ptr %10) #7
  br label %53, !llvm.loop !210

137:                                              ; preds = %53
  call void @llvm.lifetime.end.p0(i64 8, ptr %8) #7
  call void @llvm.lifetime.end.p0(i64 4, ptr %7) #7
  ret void
}